target datalayout = "e-m:e-p270:32:32-p271:32:32-p272:64:64-i64:64-i128:128-f80:128-n8:16:32:64-S128"
target triple = "x86_64-pc-linux-gnu"

%"class.google::protobuf::io::ZeroCopyInputStream" = type { ptr }
%"class.google::protobuf::io::LimitingInputStream" = type { %"class.google::protobuf::io::ZeroCopyInputStream", ptr, i64, i64 }

; Function Attrs: mustprogress uwtable
define noundef i64 @_ZNK6google8protobuf2io19LimitingInputStream9ByteCountEv(ptr noundef nonnull align 8 dereferenceable(32) %0) unnamed_addr #4 align 2 {
  %2 = alloca i64, align 8
  %3 = alloca ptr, align 8
  store ptr %0, ptr %3, align 8
  %4 = load ptr, ptr %3, align 8
  %5 = getelementptr inbounds %"class.google::protobuf::io::LimitingInputStream", ptr %4, i32 0, i32 2
  %6 = load i64, ptr %5, align 8
  %7 = icmp slt i64 %6, 0
  br i1 %7, label %8, label %21

8:                                                ; preds = %1
  %9 = getelementptr inbounds %"class.google::protobuf::io::LimitingInputStream", ptr %4, i32 0, i32 1
  %10 = load ptr, ptr %9, align 8
  %11 = load ptr, ptr %10, align 8
  %12 = getelementptr inbounds ptr, ptr %11, i64 5
  %13 = load ptr, ptr %12, align 8
  %14 = call noundef i64 %13(ptr noundef nonnull align 8 dereferenceable(8) %10)
  %15 = getelementptr inbounds %"class.google::protobuf::io::LimitingInputStream", ptr %4, i32 0, i32 2
  %16 = load i64, ptr %15, align 8
  %17 = add nsw i64 %14, %16
  %18 = getelementptr inbounds %"class.google::protobuf::io::LimitingInputStream", ptr %4, i32 0, i32 3
  %19 = load i64, ptr %18, align 8
  %20 = sub nsw i64 %17, %19
  store i64 %20, ptr %2, align 8
  br label %31

21:                                               ; preds = %1
  %22 = getelementptr inbounds %"class.google::protobuf::io::LimitingInputStream", ptr %4, i32 0, i32 1
  %23 = load ptr, ptr %22, align 8
  %24 = load ptr, ptr %23, align 8
  %25 = getelementptr inbounds ptr, ptr %24, i64 5
  %26 = load ptr, ptr %25, align 8
  %27 = call noundef i64 %26(ptr noundef nonnull align 8 dereferenceable(8) %23)
  %28 = getelementptr inbounds %"class.google::protobuf::io::LimitingInputStream", ptr %4, i32 0, i32 3
  %29 = load i64, ptr %28, align 8
  %30 = sub nsw i64 %27, %29
  store i64 %30, ptr %2, align 8
  br label %31

31:                                               ; preds = %21, %8
  %32 = load i64, ptr %2, align 8
  ret i64 %32
}