; Function Attrs: mustprogress uwtable
define noundef i64 @_ZNK6google8protobuf2io19LimitingInputStream9ByteCountEv(ptr nocapture noundef nonnull readonly align 8 dereferenceable(32) %0) unnamed_addr #5 align 2 {
  %2 = getelementptr inbounds i8, ptr %0, i64 16
  %3 = load i64, ptr %2, align 8
  %4 = icmp slt i64 %3, 0
  %5 = getelementptr inbounds i8, ptr %0, i64 8
  %6 = load ptr, ptr %5, align 8
  %7 = load ptr, ptr %6, align 8
  %8 = getelementptr inbounds i8, ptr %7, i64 40
  %9 = load ptr, ptr %8, align 8
  %10 = tail call noundef i64 %9(ptr noundef nonnull align 8 dereferenceable(8) %6)
  %11 = load i64, ptr %2, align 8
  %12 = select i1 %4, i64 %11, i64 0
  %.sink = add nsw i64 %10, %12
  %13 = getelementptr inbounds i8, ptr %0, i64 24
  %14 = load i64, ptr %13, align 8
  %15 = sub i64 %.sink, %14
  ret i64 %15
}